target datalayout = "e-m:e-p270:32:32-p271:32:32-p272:64:64-i64:64-i128:128-f80:128-n8:16:32:64-S128"
target triple = "x86_64-pc-linux-gnu"

%struct.pcaprec_hdr = type { i32, i32, i32, i32 }
%struct.wtap_rec = type { i32, i32, i32, %struct.nstime_t, i32, %struct.nstime_t, i8, %union.anon, ptr, i8, %struct.Buffer, %struct.Buffer }
%struct.nstime_t = type { i64, i32 }
%union.anon = type { %struct.wtap_packet_header }
%struct.wtap_packet_header = type { i32, i32, i32, i32, %union.wtap_pseudo_header }
%union.wtap_pseudo_header = type { %struct.erf_mc_phdr }
%struct.erf_mc_phdr = type { %struct.erf_phdr, [16 x %struct.erf_ehdr], %union.anon.1 }
%struct.erf_phdr = type { i64, i8, i8, i16, i16, i16 }
%struct.erf_ehdr = type { i64 }
%union.anon.1 = type { i32 }
%struct.Buffer = type { ptr, i64, i64, i64 }

; Function Attrs: null_pointer_is_valid sspstrong uwtable
define internal zeroext i1 @libpcap_dump_pcap(ptr noundef %0, ptr noundef %1, ptr noundef %2, ptr noundef %3, ptr noundef %4) #0 {
  %6 = alloca i1, align 1
  %7 = alloca ptr, align 8
  %8 = alloca ptr, align 8
  %9 = alloca ptr, align 8
  %10 = alloca ptr, align 8
  %11 = alloca ptr, align 8
  %12 = alloca %struct.pcaprec_hdr, align 4
  %13 = alloca i32, align 4
  store ptr %0, ptr %7, align 8
  store ptr %1, ptr %8, align 8
  store ptr %2, ptr %9, align 8
  store ptr %3, ptr %10, align 8
  store ptr %4, ptr %11, align 8
  call void @llvm.lifetime.start.p0(i64 16, ptr %12) #10
  %14 = load ptr, ptr %8, align 8
  %15 = getelementptr inbounds nuw %struct.wtap_rec, ptr %14, i32 0, i32 3
  %16 = getelementptr inbounds nuw %struct.nstime_t, ptr %15, i32 0, i32 0
  %17 = load i64, ptr %16, align 8
  %18 = icmp slt i64 %17, 0
  br i1 %18, label %25, label %19

19:                                               ; preds = %5
  %20 = load ptr, ptr %8, align 8
  %21 = getelementptr inbounds nuw %struct.wtap_rec, ptr %20, i32 0, i32 3
  %22 = getelementptr inbounds nuw %struct.nstime_t, ptr %21, i32 0, i32 0
  %23 = load i64, ptr %22, align 8
  %24 = icmp sgt i64 %23, 2147483647
  br i1 %24, label %25, label %27

25:                                               ; preds = %19, %5
  %26 = load ptr, ptr %10, align 8
  store i32 -27, ptr %26, align 4
  store i1 false, ptr %6, align 1
  store i32 1, ptr %13, align 4
  br label %45

27:                                               ; preds = %19
  %28 = load ptr, ptr %8, align 8
  %29 = getelementptr inbounds nuw %struct.wtap_rec, ptr %28, i32 0, i32 3
  %30 = getelementptr inbounds nuw %struct.nstime_t, ptr %29, i32 0, i32 0
  %31 = load i64, ptr %30, align 8
  %32 = trunc i64 %31 to i32
  %33 = getelementptr inbounds nuw %struct.pcaprec_hdr, ptr %12, i32 0, i32 0
  store i32 %32, ptr %33, align 4
  %34 = load ptr, ptr %8, align 8
  %35 = getelementptr inbounds nuw %struct.wtap_rec, ptr %34, i32 0, i32 3
  %36 = getelementptr inbounds nuw %struct.nstime_t, ptr %35, i32 0, i32 1
  %37 = load i32, ptr %36, align 8
  %38 = sdiv i32 %37, 1000
  %39 = getelementptr inbounds nuw %struct.pcaprec_hdr, ptr %12, i32 0, i32 1
  store i32 %38, ptr %39, align 4
  %40 = load ptr, ptr %7, align 8
  %41 = load ptr, ptr %8, align 8
  %42 = load ptr, ptr %9, align 8
  %43 = load ptr, ptr %10, align 8
  %44 = call zeroext i1 @libpcap_dump_write_packet(ptr noundef %40, ptr noundef %41, ptr noundef %12, i64 noundef 16, ptr noundef %42, ptr noundef %43)
  store i1 %44, ptr %6, align 1
  store i32 1, ptr %13, align 4
  br label %45

45:                                               ; preds = %27, %25
  call void @llvm.lifetime.end.p0(i64 16, ptr %12) #10
  %46 = load i1, ptr %6, align 1
  ret i1 %46
}